target datalayout = "e-m:e-p270:32:32-p271:32:32-p272:64:64-i64:64-i128:128-f80:128-n8:16:32:64-S128"
target triple = "x86_64-pc-linux-gnu"

@.str = private unnamed_addr constant [37 x i8] c"PRTE ERROR: %s in file %s at line %d\00", align 1
@.str.1 = private unnamed_addr constant [22 x i8] c"odls_default_module.c\00", align 1

; Function Attrs: nounwind uwtable
define internal i32 @prte_odls_default_signal_local_procs(ptr noundef %0, i32 noundef %1) #1 {
  %3 = alloca i32, align 4
  %4 = alloca ptr, align 8
  %5 = alloca i32, align 4
  %6 = alloca i32, align 4
  %7 = alloca i32, align 4
  store ptr %0, ptr %4, align 8, !tbaa !33
  store i32 %1, ptr %5, align 4, !tbaa !8
  call void @llvm.lifetime.start.p0(i64 4, ptr %6) #13
  %8 = load ptr, ptr %4, align 8, !tbaa !33
  %9 = load i32, ptr %5, align 4, !tbaa !8
  %10 = call i32 @prte_odls_base_default_signal_local_procs(ptr noundef %8, i32 noundef %9, ptr noundef @send_signal)
  store i32 %10, ptr %6, align 4, !tbaa !8
  %11 = load i32, ptr %6, align 4, !tbaa !8
  %12 = icmp ne i32 0, %11
  br i1 %12, label %13, label %24

13:                                               ; preds = %2
  br label %14

14:                                               ; preds = %13
  %15 = load i32, ptr %6, align 4, !tbaa !8
  %16 = icmp ne i32 -43, %15
  br i1 %16, label %17, label %20

17:                                               ; preds = %14
  %18 = load i32, ptr %6, align 4, !tbaa !8
  %19 = call ptr @prte_strerror(i32 noundef %18)
  call void (i32, ptr, ...) @pmix_output(i32 noundef 0, ptr noundef @.str, ptr noundef %19, ptr noundef @.str.1, i32 noundef 719)
  br label %20

20:                                               ; preds = %17, %14
  br label %21

21:                                               ; preds = %20
  br label %22

22:                                               ; preds = %21
  %23 = load i32, ptr %6, align 4, !tbaa !8
  store i32 %23, ptr %3, align 4
  store i32 1, ptr %7, align 4
  br label %25

24:                                               ; preds = %2
  store i32 0, ptr %3, align 4
  store i32 1, ptr %7, align 4
  br label %25

25:                                               ; preds = %24, %22
  call void @llvm.lifetime.end.p0(i64 4, ptr %6) #13
  %26 = load i32, ptr %3, align 4
  ret i32 %26
}