; Function Attrs: nounwind uwtable
define internal noundef i32 @prte_odls_default_signal_local_procs(ptr noundef %0, i32 noundef %1) #1 {
  %3 = tail call i32 @prte_odls_base_default_signal_local_procs(ptr noundef %0, i32 noundef %1, ptr noundef nonnull @send_signal) #16
  switch i32 %3, label %4 [
    i32 0, label %6
    i32 -43, label %6
  ]

4:                                                ; preds = %2
  %5 = tail call ptr @prte_strerror(i32 noundef %3) #16
  tail call void (i32, ptr, ...) @pmix_output(i32 noundef 0, ptr noundef nonnull @.str, ptr noundef %5, ptr noundef nonnull @.str.1, i32 noundef 719) #16
  br label %6

6:                                                ; preds = %2, %4, %2
  ret i32 %3
}